; Function Attrs: mustprogress uwtable
define hidden void @_ZN4cvc58internal4prop16MinisatSatSolverC2ERNS0_3EnvERNS0_18StatisticsRegistryE(ptr noundef nonnull align 8 dereferenceable(168) %this, ptr noundef nonnull align 8 dereferenceable(576) %env, ptr noundef nonnull align 8 dereferenceable(72) %registry) unnamed_addr #3 align 2 personality ptr @__gxx_personality_v0 {
entry:
  store ptr getelementptr inbounds ({ [31 x ptr] }, ptr @_ZTVN4cvc58internal4prop14CDCLTSatSolverE, i64 0, i32 0, i64 2), ptr %this, align 8
  %0 = getelementptr inbounds i8, ptr %this, i64 8
  tail call void @_ZN4cvc58internal6EnvObjC2ERNS0_3EnvE(ptr noundef nonnull align 8 dereferenceable(16) %0, ptr noundef nonnull align 8 dereferenceable(576) %env)
  store ptr getelementptr inbounds ({ [31 x ptr], [4 x ptr] }, ptr @_ZTVN4cvc58internal4prop16MinisatSatSolverE, i64 0, i32 0, i64 2), ptr %this, align 8
  store ptr getelementptr inbounds ({ [31 x ptr], [4 x ptr] }, ptr @_ZTVN4cvc58internal4prop16MinisatSatSolverE, i64 0, i32 1, i64 2), ptr %0, align 8
  %d_minisat = getelementptr inbounds i8, ptr %this, i64 24
  %d_assumptions = getelementptr inbounds i8, ptr %this, i64 40
  %_M_single_bucket.i.i = getelementptr inbounds i8, ptr %this, i64 88
  tail call void @llvm.memset.p0.i64(ptr noundef nonnull align 8 dereferenceable(56) %d_minisat, i8 0, i64 56, i1 false)
  store ptr %_M_single_bucket.i.i, ptr %d_assumptions, align 8
  %_M_bucket_count.i.i = getelementptr inbounds i8, ptr %this, i64 48
  store i64 1, ptr %_M_bucket_count.i.i, align 8
  %_M_before_begin.i.i = getelementptr inbounds i8, ptr %this, i64 56
  %_M_rehash_policy.i.i = getelementptr inbounds i8, ptr %this, i64 72
  tail call void @llvm.memset.p0.i64(ptr noundef nonnull align 8 dereferenceable(16) %_M_before_begin.i.i, i8 0, i64 16, i1 false)
  store float 1.000000e+00, ptr %_M_rehash_policy.i.i, align 8
  %_M_next_resize.i.i.i = getelementptr inbounds i8, ptr %this, i64 80
  tail call void @llvm.memset.p0.i64(ptr noundef nonnull align 8 dereferenceable(16) %_M_next_resize.i.i.i, i8 0, i64 16, i1 false)
  %d_statistics = getelementptr inbounds i8, ptr %this, i64 96
  invoke void @_ZN4cvc58internal4prop16MinisatSatSolver10StatisticsC2ERNS0_18StatisticsRegistryE(ptr noundef nonnull align 8 dereferenceable(72) %d_statistics, ptr noundef nonnull align 8 dereferenceable(72) %registry)
          to label %invoke.cont3 unwind label %lpad2

invoke.cont3:                                     ; preds = %entry
  ret void

lpad2:                                            ; preds = %entry
  %1 = landingpad { ptr, i32 }
          cleanup
  tail call void @_ZNSt13unordered_setIN4cvc58internal4prop10SatLiteralENS2_22SatLiteralHashFunctionESt8equal_toIS3_ESaIS3_EED2Ev(ptr noundef nonnull align 8 dereferenceable(56) %d_assumptions) #26
  resume { ptr, i32 } %1
}